; Function Attrs: nounwind uwtable
define ptr @l_Lean_Compiler_LCNF_PullLetDecls_withFVar___rarg(ptr noundef %0, ptr noundef %1, ptr noundef %2, ptr noundef %3, ptr noundef %4, ptr noundef %5, ptr noundef %6, ptr noundef %7, ptr noundef %8) #0 {
  %.val = load i32, ptr %2, align 4, !tbaa !4
  %10 = icmp eq i32 %.val, 1
  br i1 %10, label %11, label %15

11:                                               ; preds = %9
  %12 = getelementptr inbounds nuw i8, ptr %2, i64 16
  %13 = load ptr, ptr %12, align 8, !tbaa !9
  %14 = tail call ptr @l_Lean_RBNode_insert___at_Lean_FVarIdSet_insert___spec__1(ptr noundef %13, ptr noundef %0, ptr noundef nonnull inttoptr (i64 1 to ptr)) #4
  store ptr %14, ptr %12, align 8, !tbaa !9
  br label %52

15:                                               ; preds = %9
  %16 = getelementptr inbounds nuw i8, ptr %2, i64 8
  %17 = load ptr, ptr %16, align 8, !tbaa !9
  %18 = getelementptr inbounds nuw i8, ptr %2, i64 16
  %19 = load ptr, ptr %18, align 8, !tbaa !9
  %20 = ptrtoint ptr %19 to i64
  %21 = and i64 %20, 1
  %.not = icmp eq i64 %21, 0
  br i1 %.not, label %22, label %lean_inc.exit

22:                                               ; preds = %15
  %.val.i = load i32, ptr %19, align 4, !tbaa !4
  %23 = icmp sgt i32 %.val.i, 0
  br i1 %23, label %24, label %26, !prof !11

24:                                               ; preds = %22
  %25 = add nuw i32 %.val.i, 1
  store i32 %25, ptr %19, align 4, !tbaa !4
  br label %lean_inc.exit

26:                                               ; preds = %22
  %.not.i39 = icmp eq i32 %.val.i, 0
  br i1 %.not.i39, label %lean_inc.exit, label %27

27:                                               ; preds = %26
  tail call void @lean_inc_ref_cold(ptr noundef nonnull %19) #4
  br label %lean_inc.exit

lean_inc.exit:                                    ; preds = %27, %26, %24, %15
  %28 = ptrtoint ptr %17 to i64
  %29 = and i64 %28, 1
  %.not43 = icmp eq i64 %29, 0
  br i1 %.not43, label %30, label %lean_inc.exit38

30:                                               ; preds = %lean_inc.exit
  %.val.i40 = load i32, ptr %17, align 4, !tbaa !4
  %31 = icmp sgt i32 %.val.i40, 0
  br i1 %31, label %32, label %34, !prof !11

32:                                               ; preds = %30
  %33 = add nuw i32 %.val.i40, 1
  store i32 %33, ptr %17, align 4, !tbaa !4
  br label %lean_inc.exit38

34:                                               ; preds = %30
  %.not.i41 = icmp eq i32 %.val.i40, 0
  br i1 %.not.i41, label %lean_inc.exit38, label %35

35:                                               ; preds = %34
  tail call void @lean_inc_ref_cold(ptr noundef nonnull %17) #4
  br label %lean_inc.exit38

lean_inc.exit38:                                  ; preds = %35, %34, %32, %lean_inc.exit
  %36 = ptrtoint ptr %2 to i64
  %37 = and i64 %36, 1
  %.not44 = icmp eq i64 %37, 0
  br i1 %.not44, label %38, label %lean_dec.exit

38:                                               ; preds = %lean_inc.exit38
  %39 = load i32, ptr %2, align 4, !tbaa !4
  %40 = icmp sgt i32 %39, 1
  br i1 %40, label %41, label %43, !prof !11

41:                                               ; preds = %38
  %42 = add nsw i32 %39, -1
  store i32 %42, ptr %2, align 4, !tbaa !4
  br label %lean_dec.exit

43:                                               ; preds = %38
  %.not.i = icmp eq i32 %39, 0
  br i1 %.not.i, label %lean_dec.exit, label %44

44:                                               ; preds = %43
  tail call void @lean_dec_ref_cold(ptr noundef nonnull %2) #4
  br label %lean_dec.exit

lean_dec.exit:                                    ; preds = %44, %43, %41, %lean_inc.exit38
  %45 = tail call ptr @l_Lean_RBNode_insert___at_Lean_FVarIdSet_insert___spec__1(ptr noundef %19, ptr noundef %0, ptr noundef nonnull inttoptr (i64 1 to ptr)) #4
  tail call void @lean_inc_heartbeat() #4
  %46 = tail call noalias ptr @mi_malloc_small(i64 noundef 24) #4
  %47 = icmp eq ptr %46, null
  br i1 %47, label %48, label %lean_alloc_ctor.exit

48:                                               ; preds = %lean_dec.exit
  tail call void @lean_internal_panic_out_of_memory() #5
  unreachable

lean_alloc_ctor.exit:                             ; preds = %lean_dec.exit
  %49 = getelementptr inbounds nuw i8, ptr %46, i64 4
  store i32 1, ptr %46, align 4, !tbaa !4
  store i32 131096, ptr %49, align 4
  %50 = getelementptr inbounds nuw i8, ptr %46, i64 8
  store ptr %17, ptr %50, align 8, !tbaa !9
  %51 = getelementptr inbounds nuw i8, ptr %46, i64 16
  store ptr %45, ptr %51, align 8, !tbaa !9
  br label %52

52:                                               ; preds = %lean_alloc_ctor.exit, %11
  %.sink = phi ptr [ %46, %lean_alloc_ctor.exit ], [ %2, %11 ]
  %53 = tail call ptr @lean_apply_7(ptr noundef %1, ptr noundef nonnull %.sink, ptr noundef %3, ptr noundef %4, ptr noundef %5, ptr noundef %6, ptr noundef %7, ptr noundef %8) #4
  ret ptr %53
}